target datalayout = "e-m:e-p270:32:32-p271:32:32-p272:64:64-i64:64-i128:128-f80:128-n8:16:32:64-S128"
target triple = "x86_64-unknown-linux-gnu"

%"class.proxygen::ByteEventTracker" = type { ptr, i64, %"class.boost::intrusive::list", ptr }
%"class.boost::intrusive::list" = type { %"class.boost::intrusive::list_impl" }
%"class.boost::intrusive::list_impl" = type { %"struct.boost::intrusive::list_impl<boost::intrusive::mhtraits<proxygen::ByteEvent, boost::intrusive::list_member_hook<boost::intrusive::link_mode<boost::intrusive::safe_link>>, &proxygen::ByteEvent::listHook>, unsigned long, true, void>::data_t" }
%"struct.boost::intrusive::list_impl<boost::intrusive::mhtraits<proxygen::ByteEvent, boost::intrusive::list_member_hook<boost::intrusive::link_mode<boost::intrusive::safe_link>>, &proxygen::ByteEvent::listHook>, unsigned long, true, void>::data_t" = type { %"struct.boost::intrusive::list_impl<boost::intrusive::mhtraits<proxygen::ByteEvent, boost::intrusive::list_member_hook<boost::intrusive::link_mode<boost::intrusive::safe_link>>, &proxygen::ByteEvent::listHook>, unsigned long, true, void>::root_plus_size" }
%"struct.boost::intrusive::list_impl<boost::intrusive::mhtraits<proxygen::ByteEvent, boost::intrusive::list_member_hook<boost::intrusive::link_mode<boost::intrusive::safe_link>>, &proxygen::ByteEvent::listHook>, unsigned long, true, void>::root_plus_size" = type { %"struct.boost::intrusive::detail::size_holder", %"struct.boost::intrusive::detail::default_header_holder" }
%"struct.boost::intrusive::detail::size_holder" = type { i64 }
%"struct.boost::intrusive::detail::default_header_holder" = type { %"struct.boost::intrusive::list_node" }
%"struct.boost::intrusive::list_node" = type { ptr, ptr }

; Function Attrs: mustprogress nounwind uwtable
define linkonce_odr void @_ZN5boost9intrusive24circular_list_algorithmsINS0_16list_node_traitsIPvEEE4initEPNS0_9list_nodeIS3_EE(ptr noundef %this_node) #4 comdat align 2 {
entry:
  %n.addr.i1 = alloca ptr, align 8
  %prev.addr.i = alloca ptr, align 8
  %n.addr.i = alloca ptr, align 8
  %next.addr.i = alloca ptr, align 8
  %this_node.addr = alloca ptr, align 8
  %null_node = alloca ptr, align 8
  store ptr %this_node, ptr %this_node.addr, align 8
  store ptr null, ptr %null_node, align 8
  %0 = load ptr, ptr %this_node.addr, align 8
  store ptr %0, ptr %n.addr.i, align 8
  store ptr null, ptr %next.addr.i, align 8
  %1 = load ptr, ptr %next.addr.i, align 8
  %2 = load ptr, ptr %n.addr.i, align 8
  store ptr %1, ptr %2, align 8
  %3 = load ptr, ptr %this_node.addr, align 8
  store ptr %3, ptr %n.addr.i1, align 8
  store ptr null, ptr %prev.addr.i, align 8
  %4 = load ptr, ptr %prev.addr.i, align 8
  %5 = load ptr, ptr %n.addr.i1, align 8
  %prev_.i = getelementptr inbounds %"struct.boost::intrusive::list_node", ptr %5, i32 0, i32 1
  store ptr %4, ptr %prev_.i, align 8
  ret void
}

; Function Attrs: mustprogress nounwind uwtable
define linkonce_odr void @_ZN5boost9intrusive24circular_list_algorithmsINS0_16list_node_traitsIPvEEE9swap_nextEPNS0_9list_nodeIS3_EES8_(ptr noundef %this_node, ptr noundef %other_node) #4 comdat align 2 {
entry:
  %n.addr.i4 = alloca ptr, align 8
  %next.addr.i5 = alloca ptr, align 8
  %n.addr.i3 = alloca ptr, align 8
  %next.addr.i = alloca ptr, align 8
  %n.addr.i2 = alloca ptr, align 8
  %n.addr.i = alloca ptr, align 8
  %this_node.addr = alloca ptr, align 8
  %other_node.addr = alloca ptr, align 8
  %temp = alloca ptr, align 8
  store ptr %this_node, ptr %this_node.addr, align 8
  store ptr %other_node, ptr %other_node.addr, align 8
  %0 = load ptr, ptr %this_node.addr, align 8
  store ptr %0, ptr %n.addr.i2, align 8
  %1 = load ptr, ptr %n.addr.i2, align 8
  %2 = load ptr, ptr %1, align 8
  store ptr %2, ptr %temp, align 8
  %3 = load ptr, ptr %this_node.addr, align 8
  %4 = load ptr, ptr %other_node.addr, align 8
  store ptr %4, ptr %n.addr.i, align 8
  %5 = load ptr, ptr %n.addr.i, align 8
  %6 = load ptr, ptr %5, align 8
  store ptr %3, ptr %n.addr.i4, align 8
  store ptr %6, ptr %next.addr.i5, align 8
  %7 = load ptr, ptr %next.addr.i5, align 8
  %8 = load ptr, ptr %n.addr.i4, align 8
  store ptr %7, ptr %8, align 8
  %9 = load ptr, ptr %other_node.addr, align 8
  %10 = load ptr, ptr %temp, align 8
  store ptr %9, ptr %n.addr.i3, align 8
  store ptr %10, ptr %next.addr.i, align 8
  %11 = load ptr, ptr %next.addr.i, align 8
  %12 = load ptr, ptr %n.addr.i3, align 8
  store ptr %11, ptr %12, align 8
  ret void
}

; Function Attrs: mustprogress nounwind uwtable
define linkonce_odr void @_ZN5boost9intrusive24circular_list_algorithmsINS0_16list_node_traitsIPvEEE9swap_prevEPNS0_9list_nodeIS3_EES8_(ptr noundef %this_node, ptr noundef %other_node) #4 comdat align 2 {
entry:
  %n.addr.i7 = alloca ptr, align 8
  %n.addr.i5 = alloca ptr, align 8
  %n.addr.i2 = alloca ptr, align 8
  %prev.addr.i3 = alloca ptr, align 8
  %n.addr.i = alloca ptr, align 8
  %prev.addr.i = alloca ptr, align 8
  %this_node.addr = alloca ptr, align 8
  %other_node.addr = alloca ptr, align 8
  %temp = alloca ptr, align 8
  store ptr %this_node, ptr %this_node.addr, align 8
  store ptr %other_node, ptr %other_node.addr, align 8
  %0 = load ptr, ptr %this_node.addr, align 8
  store ptr %0, ptr %n.addr.i7, align 8
  %1 = load ptr, ptr %n.addr.i7, align 8
  %prev_.i8 = getelementptr inbounds %"struct.boost::intrusive::list_node", ptr %1, i32 0, i32 1
  %2 = load ptr, ptr %prev_.i8, align 8
  store ptr %2, ptr %temp, align 8
  %3 = load ptr, ptr %this_node.addr, align 8
  %4 = load ptr, ptr %other_node.addr, align 8
  store ptr %4, ptr %n.addr.i5, align 8
  %5 = load ptr, ptr %n.addr.i5, align 8
  %prev_.i6 = getelementptr inbounds %"struct.boost::intrusive::list_node", ptr %5, i32 0, i32 1
  %6 = load ptr, ptr %prev_.i6, align 8
  store ptr %3, ptr %n.addr.i2, align 8
  store ptr %6, ptr %prev.addr.i3, align 8
  %7 = load ptr, ptr %prev.addr.i3, align 8
  %8 = load ptr, ptr %n.addr.i2, align 8
  %prev_.i4 = getelementptr inbounds %"struct.boost::intrusive::list_node", ptr %8, i32 0, i32 1
  store ptr %7, ptr %prev_.i4, align 8
  %9 = load ptr, ptr %other_node.addr, align 8
  %10 = load ptr, ptr %temp, align 8
  store ptr %9, ptr %n.addr.i, align 8
  store ptr %10, ptr %prev.addr.i, align 8
  %11 = load ptr, ptr %prev.addr.i, align 8
  %12 = load ptr, ptr %n.addr.i, align 8
  %prev_.i = getelementptr inbounds %"struct.boost::intrusive::list_node", ptr %12, i32 0, i32 1
  store ptr %11, ptr %prev_.i, align 8
  ret void
}

; Function Attrs: mustprogress nounwind uwtable
define linkonce_odr void @_ZN5boost9intrusive24circular_list_algorithmsINS0_16list_node_traitsIPvEEE11init_headerEPNS0_9list_nodeIS3_EE(ptr noundef %this_node) #4 comdat align 2 personality ptr @__gxx_personality_v0 {
entry:
  %n.addr.i2 = alloca ptr, align 8
  %prev.addr.i = alloca ptr, align 8
  %n.addr.i = alloca ptr, align 8
  %next.addr.i = alloca ptr, align 8
  %this_node.addr = alloca ptr, align 8
  store ptr %this_node, ptr %this_node.addr, align 8
  %0 = load ptr, ptr %this_node.addr, align 8
  %1 = load ptr, ptr %this_node.addr, align 8
  store ptr %0, ptr %n.addr.i, align 8
  store ptr %1, ptr %next.addr.i, align 8
  %2 = load ptr, ptr %next.addr.i, align 8
  %3 = load ptr, ptr %n.addr.i, align 8
  store ptr %2, ptr %3, align 8
  br label %invoke.cont

invoke.cont:                                      ; preds = %entry
  %4 = load ptr, ptr %this_node.addr, align 8
  %5 = load ptr, ptr %this_node.addr, align 8
  store ptr %4, ptr %n.addr.i2, align 8
  store ptr %5, ptr %prev.addr.i, align 8
  %6 = load ptr, ptr %prev.addr.i, align 8
  %7 = load ptr, ptr %n.addr.i2, align 8
  %prev_.i = getelementptr inbounds %"struct.boost::intrusive::list_node", ptr %7, i32 0, i32 1
  store ptr %6, ptr %prev_.i, align 8
  br label %invoke.cont1

invoke.cont1:                                     ; preds = %invoke.cont
  ret void

terminate.lpad:                                   ; No predecessors!
  %8 = landingpad { ptr, i32 }
          catch ptr null
  %9 = extractvalue { ptr, i32 } %8, 0
  call void @__clang_call_terminate(ptr %9) #14
  unreachable
}

; Function Attrs: noreturn nounwind uwtable
define linkonce_odr hidden void @__clang_call_terminate(ptr noundef %0) #5 comdat {
  %2 = call ptr @__cxa_begin_catch(ptr %0) #3
  call void @_ZSt9terminatev() #14
  unreachable
}

; Function Attrs: mustprogress nounwind uwtable
define linkonce_odr void @_ZN5boost9intrusive24circular_list_algorithmsINS0_16list_node_traitsIPvEEE10swap_nodesEPNS0_9list_nodeIS3_EES8_(ptr noundef %this_node, ptr noundef %other_node) #4 comdat align 2 personality ptr @__gxx_personality_v0 {
entry:
  %n.addr.i30 = alloca ptr, align 8
  %n.addr.i29 = alloca ptr, align 8
  %n.addr.i27 = alloca ptr, align 8
  %n.addr.i26 = alloca ptr, align 8
  %this_node.addr.i20 = alloca ptr, align 8
  %this_node.addr.i = alloca ptr, align 8
  %n.addr.i19 = alloca ptr, align 8
  %n.addr.i = alloca ptr, align 8
  %this_node.addr = alloca ptr, align 8
  %other_node.addr = alloca ptr, align 8
  %this_inited = alloca i8, align 1
  %other_inited = alloca i8, align 1
  %next_this = alloca ptr, align 8
  %prev_this = alloca ptr, align 8
  %next_other = alloca ptr, align 8
  %prev_other = alloca ptr, align 8
  store ptr %this_node, ptr %this_node.addr, align 8
  store ptr %other_node, ptr %other_node.addr, align 8
  %0 = load ptr, ptr %other_node.addr, align 8
  %1 = load ptr, ptr %this_node.addr, align 8
  %cmp = icmp eq ptr %0, %1
  br i1 %cmp, label %if.then, label %if.end

if.then:                                          ; preds = %entry
  br label %if.end18

if.end:                                           ; preds = %entry
  %2 = load ptr, ptr %this_node.addr, align 8
  store ptr %2, ptr %this_node.addr.i20, align 8
  %3 = load ptr, ptr %this_node.addr.i20, align 8
  store ptr %3, ptr %n.addr.i29, align 8
  %4 = load ptr, ptr %n.addr.i29, align 8
  %5 = load ptr, ptr %4, align 8
  br label %_ZN5boost9intrusive24circular_list_algorithmsINS0_16list_node_traitsIPvEEE6initedEPKNS0_9list_nodeIS3_EE.exit25

terminate.lpad.i22:                               ; No predecessors!
  %6 = landingpad { ptr, i32 }
          catch ptr null
  %7 = extractvalue { ptr, i32 } %6, 0
  call void @__clang_call_terminate(ptr %7) #14
  unreachable

_ZN5boost9intrusive24circular_list_algorithmsINS0_16list_node_traitsIPvEEE6initedEPKNS0_9list_nodeIS3_EE.exit25: ; preds = %if.end
  %tobool.i23 = icmp ne ptr %5, null
  %lnot.i24 = xor i1 %tobool.i23, true
  %frombool = zext i1 %lnot.i24 to i8
  store i8 %frombool, ptr %this_inited, align 1
  %8 = load ptr, ptr %other_node.addr, align 8
  store ptr %8, ptr %this_node.addr.i, align 8
  %9 = load ptr, ptr %this_node.addr.i, align 8
  store ptr %9, ptr %n.addr.i30, align 8
  %10 = load ptr, ptr %n.addr.i30, align 8
  %11 = load ptr, ptr %10, align 8
  br label %_ZN5boost9intrusive24circular_list_algorithmsINS0_16list_node_traitsIPvEEE6initedEPKNS0_9list_nodeIS3_EE.exit

terminate.lpad.i:                                 ; No predecessors!
  %12 = landingpad { ptr, i32 }
          catch ptr null
  %13 = extractvalue { ptr, i32 } %12, 0
  call void @__clang_call_terminate(ptr %13) #14
  unreachable

_ZN5boost9intrusive24circular_list_algorithmsINS0_16list_node_traitsIPvEEE6initedEPKNS0_9list_nodeIS3_EE.exit: ; preds = %_ZN5boost9intrusive24circular_list_algorithmsINS0_16list_node_traitsIPvEEE6initedEPKNS0_9list_nodeIS3_EE.exit25
  %tobool.i = icmp ne ptr %11, null
  %lnot.i = xor i1 %tobool.i, true
  %frombool2 = zext i1 %lnot.i to i8
  store i8 %frombool2, ptr %other_inited, align 1
  %14 = load i8, ptr %this_inited, align 1
  %tobool = trunc i8 %14 to i1
  br i1 %tobool, label %if.then3, label %if.end4

if.then3:                                         ; preds = %_ZN5boost9intrusive24circular_list_algorithmsINS0_16list_node_traitsIPvEEE6initedEPKNS0_9list_nodeIS3_EE.exit
  %15 = load ptr, ptr %this_node.addr, align 8
  call void @_ZN5boost9intrusive24circular_list_algorithmsINS0_16list_node_traitsIPvEEE11init_headerEPNS0_9list_nodeIS3_EE(ptr noundef %15) #3
  br label %if.end4

if.end4:                                          ; preds = %if.then3, %_ZN5boost9intrusive24circular_list_algorithmsINS0_16list_node_traitsIPvEEE6initedEPKNS0_9list_nodeIS3_EE.exit
  %16 = load i8, ptr %other_inited, align 1
  %tobool5 = trunc i8 %16 to i1
  br i1 %tobool5, label %if.then6, label %if.end7

if.then6:                                         ; preds = %if.end4
  %17 = load ptr, ptr %other_node.addr, align 8
  call void @_ZN5boost9intrusive24circular_list_algorithmsINS0_16list_node_traitsIPvEEE11init_headerEPNS0_9list_nodeIS3_EE(ptr noundef %17) #3
  br label %if.end7

if.end7:                                          ; preds = %if.then6, %if.end4
  %18 = load ptr, ptr %this_node.addr, align 8
  store ptr %18, ptr %n.addr.i19, align 8
  %19 = load ptr, ptr %n.addr.i19, align 8
  %20 = load ptr, ptr %19, align 8
  store ptr %20, ptr %next_this, align 8
  %21 = load ptr, ptr %this_node.addr, align 8
  store ptr %21, ptr %n.addr.i27, align 8
  %22 = load ptr, ptr %n.addr.i27, align 8
  %prev_.i28 = getelementptr inbounds %"struct.boost::intrusive::list_node", ptr %22, i32 0, i32 1
  %23 = load ptr, ptr %prev_.i28, align 8
  br label %invoke.cont

invoke.cont:                                      ; preds = %if.end7
  store ptr %23, ptr %prev_this, align 8
  %24 = load ptr, ptr %other_node.addr, align 8
  store ptr %24, ptr %n.addr.i, align 8
  %25 = load ptr, ptr %n.addr.i, align 8
  %26 = load ptr, ptr %25, align 8
  store ptr %26, ptr %next_other, align 8
  %27 = load ptr, ptr %other_node.addr, align 8
  store ptr %27, ptr %n.addr.i26, align 8
  %28 = load ptr, ptr %n.addr.i26, align 8
  %prev_.i = getelementptr inbounds %"struct.boost::intrusive::list_node", ptr %28, i32 0, i32 1
  %29 = load ptr, ptr %prev_.i, align 8
  br label %invoke.cont11

invoke.cont11:                                    ; preds = %invoke.cont
  store ptr %29, ptr %prev_other, align 8
  %30 = load ptr, ptr %next_this, align 8
  %31 = load ptr, ptr %next_other, align 8
  call void @_ZN5boost9intrusive24circular_list_algorithmsINS0_16list_node_traitsIPvEEE9swap_prevEPNS0_9list_nodeIS3_EES8_(ptr noundef %30, ptr noundef %31) #3
  %32 = load ptr, ptr %prev_this, align 8
  %33 = load ptr, ptr %prev_other, align 8
  call void @_ZN5boost9intrusive24circular_list_algorithmsINS0_16list_node_traitsIPvEEE9swap_nextEPNS0_9list_nodeIS3_EES8_(ptr noundef %32, ptr noundef %33) #3
  %34 = load ptr, ptr %this_node.addr, align 8
  %35 = load ptr, ptr %other_node.addr, align 8
  call void @_ZN5boost9intrusive24circular_list_algorithmsINS0_16list_node_traitsIPvEEE9swap_nextEPNS0_9list_nodeIS3_EES8_(ptr noundef %34, ptr noundef %35) #3
  %36 = load ptr, ptr %this_node.addr, align 8
  %37 = load ptr, ptr %other_node.addr, align 8
  call void @_ZN5boost9intrusive24circular_list_algorithmsINS0_16list_node_traitsIPvEEE9swap_prevEPNS0_9list_nodeIS3_EES8_(ptr noundef %36, ptr noundef %37) #3
  %38 = load i8, ptr %this_inited, align 1
  %tobool13 = trunc i8 %38 to i1
  br i1 %tobool13, label %if.then14, label %if.end15

if.then14:                                        ; preds = %invoke.cont11
  %39 = load ptr, ptr %other_node.addr, align 8
  call void @_ZN5boost9intrusive24circular_list_algorithmsINS0_16list_node_traitsIPvEEE4initEPNS0_9list_nodeIS3_EE(ptr noundef %39) #3
  br label %if.end15

if.end15:                                         ; preds = %if.then14, %invoke.cont11
  %40 = load i8, ptr %other_inited, align 1
  %tobool16 = trunc i8 %40 to i1
  br i1 %tobool16, label %if.then17, label %if.end18

if.then17:                                        ; preds = %if.end15
  %41 = load ptr, ptr %this_node.addr, align 8
  call void @_ZN5boost9intrusive24circular_list_algorithmsINS0_16list_node_traitsIPvEEE4initEPNS0_9list_nodeIS3_EE(ptr noundef %41) #3
  br label %if.end18

if.end18:                                         ; preds = %if.then17, %if.end15, %if.then
  ret void

terminate.lpad:                                   ; No predecessors!
  %42 = landingpad { ptr, i32 }
          catch ptr null
  %43 = extractvalue { ptr, i32 } %42, 0
  call void @__clang_call_terminate(ptr %43) #14
  unreachable
}

; Function Attrs: mustprogress nounwind uwtable
define linkonce_odr void @_ZN5boost9intrusive9list_implINS0_8mhtraitsIN8proxygen9ByteEventENS0_16list_member_hookIJNS0_9link_modeILNS0_14link_mode_typeE1EEEEEEXadL_ZNS4_8listHookEEEEEmLb1EvE4swapERSB_(ptr noundef nonnull align 8 dereferenceable(24) %this, ptr noundef nonnull align 8 dereferenceable(24) %other) #4 comdat align 2 personality ptr @__gxx_personality_v0 {
entry:
  %this.addr.i24 = alloca ptr, align 8
  %other.addr.i = alloca ptr, align 8
  %tmp.i = alloca i64, align 8
  %v.addr.i23 = alloca ptr, align 8
  %v.addr.i = alloca ptr, align 8
  %r.addr.i21 = alloca ptr, align 8
  %r.addr.i = alloca ptr, align 8
  %this.addr.i18 = alloca ptr, align 8
  %this.addr.i15 = alloca ptr, align 8
  %this.addr.i13 = alloca ptr, align 8
  %this.addr.i11 = alloca ptr, align 8
  %this.addr.i7 = alloca ptr, align 8
  %this.addr.i = alloca ptr, align 8
  %this.addr = alloca ptr, align 8
  %other.addr = alloca ptr, align 8
  store ptr %this, ptr %this.addr, align 8
  store ptr %other, ptr %other.addr, align 8
  %this1 = load ptr, ptr %this.addr, align 8
  store ptr %this1, ptr %this.addr.i7, align 8
  %this1.i8 = load ptr, ptr %this.addr.i7, align 8
  %m_header.i9 = getelementptr inbounds %"struct.boost::intrusive::list_impl<boost::intrusive::mhtraits<proxygen::ByteEvent, boost::intrusive::list_member_hook<boost::intrusive::link_mode<boost::intrusive::safe_link>>, &proxygen::ByteEvent::listHook>, unsigned long, true, void>::root_plus_size", ptr %this1.i8, i32 0, i32 1
  store ptr %m_header.i9, ptr %this.addr.i15, align 8
  %this1.i16 = load ptr, ptr %this.addr.i15, align 8
  store ptr %this1.i16, ptr %r.addr.i21, align 8
  %0 = load ptr, ptr %r.addr.i21, align 8
  store ptr %0, ptr %v.addr.i, align 8
  %1 = load ptr, ptr %v.addr.i, align 8
  br label %invoke.cont

invoke.cont:                                      ; preds = %entry
  %2 = load ptr, ptr %other.addr, align 8
  store ptr %2, ptr %this.addr.i, align 8
  %this1.i = load ptr, ptr %this.addr.i, align 8
  %m_header.i = getelementptr inbounds %"struct.boost::intrusive::list_impl<boost::intrusive::mhtraits<proxygen::ByteEvent, boost::intrusive::list_member_hook<boost::intrusive::link_mode<boost::intrusive::safe_link>>, &proxygen::ByteEvent::listHook>, unsigned long, true, void>::root_plus_size", ptr %this1.i, i32 0, i32 1
  store ptr %m_header.i, ptr %this.addr.i18, align 8
  %this1.i19 = load ptr, ptr %this.addr.i18, align 8
  store ptr %this1.i19, ptr %r.addr.i, align 8
  %3 = load ptr, ptr %r.addr.i, align 8
  store ptr %3, ptr %v.addr.i23, align 8
  %4 = load ptr, ptr %v.addr.i23, align 8
  br label %invoke.cont2

invoke.cont2:                                     ; preds = %invoke.cont
  call void @_ZN5boost9intrusive24circular_list_algorithmsINS0_16list_node_traitsIPvEEE10swap_nodesEPNS0_9list_nodeIS3_EES8_(ptr noundef %1, ptr noundef %4) #3
  store ptr %this1, ptr %this.addr.i13, align 8
  %this1.i14 = load ptr, ptr %this.addr.i13, align 8
  %5 = load ptr, ptr %other.addr, align 8
  store ptr %5, ptr %this.addr.i11, align 8
  %this1.i12 = load ptr, ptr %this.addr.i11, align 8
  store ptr %this1.i14, ptr %this.addr.i24, align 8
  store ptr %this1.i12, ptr %other.addr.i, align 8
  %this1.i25 = load ptr, ptr %this.addr.i24, align 8
  %6 = load i64, ptr %this1.i25, align 8
  store i64 %6, ptr %tmp.i, align 8
  %7 = load ptr, ptr %other.addr.i, align 8
  %8 = load i64, ptr %7, align 8
  store i64 %8, ptr %this1.i25, align 8
  %9 = load i64, ptr %tmp.i, align 8
  %10 = load ptr, ptr %other.addr.i, align 8
  store i64 %9, ptr %10, align 8
  br label %invoke.cont6

invoke.cont6:                                     ; preds = %invoke.cont2
  ret void

terminate.lpad:                                   ; No predecessors!
  %11 = landingpad { ptr, i32 }
          catch ptr null
  %12 = extractvalue { ptr, i32 } %11, 0
  call void @__clang_call_terminate(ptr %12) #14
  unreachable
}

; Function Attrs: mustprogress nounwind uwtable
define linkonce_odr noundef nonnull align 8 dereferenceable(24) ptr @_ZN5boost9intrusive9list_implINS0_8mhtraitsIN8proxygen9ByteEventENS0_16list_member_hookIJNS0_9link_modeILNS0_14link_mode_typeE1EEEEEEXadL_ZNS4_8listHookEEEEEmLb1EvEaSEOSB_(ptr noundef nonnull align 8 dereferenceable(24) %this, ptr noundef nonnull align 8 dereferenceable(24) %x) #4 comdat align 2 {
entry:
  %this.addr = alloca ptr, align 8
  %x.addr = alloca ptr, align 8
  store ptr %this, ptr %this.addr, align 8
  store ptr %x, ptr %x.addr, align 8
  %this1 = load ptr, ptr %this.addr, align 8
  %0 = load ptr, ptr %x.addr, align 8
  call void @_ZN5boost9intrusive9list_implINS0_8mhtraitsIN8proxygen9ByteEventENS0_16list_member_hookIJNS0_9link_modeILNS0_14link_mode_typeE1EEEEEEXadL_ZNS4_8listHookEEEEEmLb1EvE4swapERSB_(ptr noundef nonnull align 8 dereferenceable(24) %this1, ptr noundef nonnull align 8 dereferenceable(24) %0) #3
  ret ptr %this1
}

; Function Attrs: mustprogress uwtable
define void @_ZN8proxygen16ByteEventTracker6absorbEOS0_(ptr noundef nonnull align 8 dereferenceable(48) %this, ptr noundef nonnull align 8 dereferenceable(48) %other) unnamed_addr #7 align 2 {
entry:
  %t.addr.i = alloca ptr, align 8
  %this.addr.i = alloca ptr, align 8
  %x.addr.i = alloca ptr, align 8
  %this.addr = alloca ptr, align 8
  %other.addr = alloca ptr, align 8
  store ptr %this, ptr %this.addr, align 8
  store ptr %other, ptr %other.addr, align 8
  %this1 = load ptr, ptr %this.addr, align 8
  %0 = load ptr, ptr %other.addr, align 8
  %byteEvents_ = getelementptr inbounds %"class.proxygen::ByteEventTracker", ptr %0, i32 0, i32 2
  %byteEvents_2 = getelementptr inbounds %"class.proxygen::ByteEventTracker", ptr %this1, i32 0, i32 2
  store ptr %byteEvents_2, ptr %this.addr.i, align 8
  store ptr %byteEvents_, ptr %x.addr.i, align 8
  %this1.i = load ptr, ptr %this.addr.i, align 8
  %1 = load ptr, ptr %x.addr.i, align 8
  store ptr %1, ptr %t.addr.i, align 8
  %2 = load ptr, ptr %t.addr.i, align 8
  %call2.i = call noundef nonnull align 8 dereferenceable(24) ptr @_ZN5boost9intrusive9list_implINS0_8mhtraitsIN8proxygen9ByteEventENS0_16list_member_hookIJNS0_9link_modeILNS0_14link_mode_typeE1EEEEEEXadL_ZNS4_8listHookEEEEEmLb1EvEaSEOSB_(ptr noundef nonnull align 8 dereferenceable(24) %this1.i, ptr noundef nonnull align 8 dereferenceable(24) %2)
  ret void
}