; Function Attrs: mustprogress nofree norecurse nosync nounwind willreturn memory(readwrite, inaccessiblemem: none) uwtable
define void @_ZN8proxygen16ByteEventTracker6absorbEOS0_(ptr noundef nonnull align 8 dereferenceable(48) %this, ptr noundef nonnull align 8 dereferenceable(48) %other) unnamed_addr #6 align 2 personality ptr @__gxx_personality_v0 {
entry:
  %m_header.i9.i.i = getelementptr inbounds i8, ptr %this, i64 24
  %m_header.i.i.i = getelementptr inbounds i8, ptr %other, i64 24
  %cmp.i.i.i = icmp eq ptr %other, %this
  br i1 %cmp.i.i.i, label %_ZN5boost9intrusive9list_implINS0_8mhtraitsIN8proxygen9ByteEventENS0_16list_member_hookIJNS0_9link_modeILNS0_14link_mode_typeE1EEEEEEXadL_ZNS4_8listHookEEEEEmLb1EvEaSEOSB_.exit, label %if.end.i.i.i

if.end.i.i.i:                                     ; preds = %entry
  %0 = load ptr, ptr %m_header.i9.i.i, align 8
  %tobool.i23.not.i.i.i = icmp eq ptr %0, null
  %1 = load ptr, ptr %m_header.i.i.i, align 8
  %tobool.i.not.i.i.i = icmp eq ptr %1, null
  br i1 %tobool.i23.not.i.i.i, label %if.then3.i.i.i, label %if.end4.i.i.i

if.then3.i.i.i:                                   ; preds = %if.end.i.i.i
  store ptr %m_header.i9.i.i, ptr %m_header.i9.i.i, align 8
  %prev_.i.i.i.i.i = getelementptr inbounds i8, ptr %this, i64 32
  store ptr %m_header.i9.i.i, ptr %prev_.i.i.i.i.i, align 8
  br label %if.end4.i.i.i

if.end4.i.i.i:                                    ; preds = %if.then3.i.i.i, %if.end.i.i.i
  %2 = phi ptr [ %m_header.i9.i.i, %if.then3.i.i.i ], [ %0, %if.end.i.i.i ]
  %prev_.i.i17.i.i.i = getelementptr inbounds i8, ptr %other, i64 32
  br i1 %tobool.i.not.i.i.i, label %if.then6.i.i.i, label %if.end4.if.end7_crit_edge.i.i.i

if.end4.if.end7_crit_edge.i.i.i:                  ; preds = %if.end4.i.i.i
  %.pre20.i.i.i = load ptr, ptr %m_header.i.i.i, align 8
  %.pre21.i.i.i = load ptr, ptr %prev_.i.i17.i.i.i, align 8
  %prev_.i6.i.phi.trans.insert.i.i.i = getelementptr inbounds i8, ptr %.pre20.i.i.i, i64 8
  %.pre22.i.i.i = load ptr, ptr %prev_.i6.i.phi.trans.insert.i.i.i, align 8
  br label %if.end7.i.i.i

if.then6.i.i.i:                                   ; preds = %if.end4.i.i.i
  store ptr %m_header.i.i.i, ptr %m_header.i.i.i, align 8
  store ptr %m_header.i.i.i, ptr %prev_.i.i17.i.i.i, align 8
  %.pre.i.i.i = load ptr, ptr %m_header.i9.i.i, align 8
  br label %if.end7.i.i.i

if.end7.i.i.i:                                    ; preds = %if.then6.i.i.i, %if.end4.if.end7_crit_edge.i.i.i
  %3 = phi ptr [ %m_header.i.i.i, %if.then6.i.i.i ], [ %.pre22.i.i.i, %if.end4.if.end7_crit_edge.i.i.i ]
  %4 = phi ptr [ %m_header.i.i.i, %if.then6.i.i.i ], [ %.pre21.i.i.i, %if.end4.if.end7_crit_edge.i.i.i ]
  %5 = phi ptr [ %m_header.i.i.i, %if.then6.i.i.i ], [ %.pre20.i.i.i, %if.end4.if.end7_crit_edge.i.i.i ]
  %6 = phi ptr [ %.pre.i.i.i, %if.then6.i.i.i ], [ %2, %if.end4.if.end7_crit_edge.i.i.i ]
  %prev_.i28.i.i.i = getelementptr inbounds i8, ptr %this, i64 32
  %7 = load ptr, ptr %prev_.i28.i.i.i, align 8
  %prev_.i8.i.i.i.i = getelementptr inbounds i8, ptr %6, i64 8
  %8 = load ptr, ptr %prev_.i8.i.i.i.i, align 8
  %prev_.i6.i.i.i.i = getelementptr inbounds i8, ptr %5, i64 8
  store ptr %3, ptr %prev_.i8.i.i.i.i, align 8
  store ptr %8, ptr %prev_.i6.i.i.i.i, align 8
  %9 = load ptr, ptr %7, align 8
  %10 = load ptr, ptr %4, align 8
  store ptr %10, ptr %7, align 8
  store ptr %9, ptr %4, align 8
  %11 = load ptr, ptr %m_header.i9.i.i, align 8
  %12 = load ptr, ptr %m_header.i.i.i, align 8
  store ptr %12, ptr %m_header.i9.i.i, align 8
  store ptr %11, ptr %m_header.i.i.i, align 8
  %13 = load ptr, ptr %prev_.i28.i.i.i, align 8
  %14 = load ptr, ptr %prev_.i.i17.i.i.i, align 8
  store ptr %14, ptr %prev_.i28.i.i.i, align 8
  store ptr %13, ptr %prev_.i.i17.i.i.i, align 8
  br i1 %tobool.i23.not.i.i.i, label %if.then14.i.i.i, label %if.end15.i.i.i

if.then14.i.i.i:                                  ; preds = %if.end7.i.i.i
  tail call void @llvm.memset.p0.i64(ptr noundef nonnull align 8 dereferenceable(16) %m_header.i.i.i, i8 0, i64 16, i1 false)
  br label %if.end15.i.i.i

if.end15.i.i.i:                                   ; preds = %if.then14.i.i.i, %if.end7.i.i.i
  br i1 %tobool.i.not.i.i.i, label %if.then17.i.i.i, label %_ZN5boost9intrusive9list_implINS0_8mhtraitsIN8proxygen9ByteEventENS0_16list_member_hookIJNS0_9link_modeILNS0_14link_mode_typeE1EEEEEEXadL_ZNS4_8listHookEEEEEmLb1EvEaSEOSB_.exit

if.then17.i.i.i:                                  ; preds = %if.end15.i.i.i
  tail call void @llvm.memset.p0.i64(ptr noundef nonnull align 8 dereferenceable(16) %m_header.i9.i.i, i8 0, i64 16, i1 false)
  br label %_ZN5boost9intrusive9list_implINS0_8mhtraitsIN8proxygen9ByteEventENS0_16list_member_hookIJNS0_9link_modeILNS0_14link_mode_typeE1EEEEEEXadL_ZNS4_8listHookEEEEEmLb1EvEaSEOSB_.exit

_ZN5boost9intrusive9list_implINS0_8mhtraitsIN8proxygen9ByteEventENS0_16list_member_hookIJNS0_9link_modeILNS0_14link_mode_typeE1EEEEEEXadL_ZNS4_8listHookEEEEEmLb1EvEaSEOSB_.exit: ; preds = %entry, %if.end15.i.i.i, %if.then17.i.i.i
  %byteEvents_2 = getelementptr inbounds i8, ptr %this, i64 16
  %byteEvents_ = getelementptr inbounds i8, ptr %other, i64 16
  %15 = load i64, ptr %byteEvents_2, align 8
  %16 = load i64, ptr %byteEvents_, align 8
  store i64 %16, ptr %byteEvents_2, align 8
  store i64 %15, ptr %byteEvents_, align 8
  ret void
}